; Function Attrs: mustprogress uwtable
define void @_ZN2cv8saliency25StaticSaliencyFineGrainedC1Ev(ptr noundef nonnull align 8 dereferenceable(8) %0) unnamed_addr #3 align 2 personality ptr @__gxx_personality_v0 {
  tail call void @_ZN2cv9AlgorithmC2Ev(ptr noundef nonnull align 8 dereferenceable(8) %0)
  %2 = getelementptr inbounds nuw i8, ptr %0, i64 8
  %3 = getelementptr inbounds nuw i8, ptr %0, i64 16
  %4 = getelementptr inbounds nuw i8, ptr %0, i64 32
  store ptr %4, ptr %3, align 8, !tbaa !13
  %5 = getelementptr inbounds nuw i8, ptr %0, i64 24
  store i64 0, ptr %5, align 8, !tbaa !6
  store i8 0, ptr %4, align 8, !tbaa !14
  store ptr getelementptr inbounds nuw inrange(-88, 72) (i8, ptr @_ZTVN2cv8saliency25StaticSaliencyFineGrainedE, i64 248), ptr %2, align 8, !tbaa !3
  store ptr getelementptr inbounds nuw inrange(-88, 72) (i8, ptr @_ZTVN2cv8saliency25StaticSaliencyFineGrainedE, i64 88), ptr %0, align 8, !tbaa !3
  %6 = invoke noundef nonnull align 8 dereferenceable(32) ptr @_ZNSt7__cxx1112basic_stringIcSt11char_traitsIcESaIcEE10_M_replaceEmmPKcm(ptr noundef nonnull align 8 dereferenceable(32) %3, i64 noundef 0, i64 noundef 0, ptr noundef nonnull @.str, i64 noundef 12)
          to label %_ZNSt7__cxx1112basic_stringIcSt11char_traitsIcESaIcEEaSEPKc.exit unwind label %7

_ZNSt7__cxx1112basic_stringIcSt11char_traitsIcESaIcEEaSEPKc.exit: ; preds = %1
  ret void

7:                                                ; preds = %1
  %8 = landingpad { ptr, i32 }
          cleanup
  tail call void @_ZN2cv8saliency8SaliencyD2Ev(ptr noundef nonnull align 8 dereferenceable(40) %2, ptr noundef nonnull getelementptr inbounds nuw (i8, ptr @_ZTTN2cv8saliency25StaticSaliencyFineGrainedE, i64 48)) #16
  tail call void @_ZN2cv9AlgorithmD2Ev(ptr noundef nonnull align 8 dereferenceable(8) %0) #16
  resume { ptr, i32 } %8
}